target datalayout = "e-m:e-p270:32:32-p271:32:32-p272:64:64-i64:64-i128:128-f80:128-n8:16:32:64-S128"
target triple = "x86_64-pc-linux-gnu"

; Function Attrs: mustprogress null_pointer_is_valid sspstrong uwtable
define void @_ZN19DetachableTabWidget9attachTabEP7QWidget7QString(ptr noundef align 8 dereferenceable_or_null(64) %0, ptr noundef %1, ptr noundef %2) unnamed_addr #0 align 2 {
  %4 = alloca ptr, align 8
  %5 = alloca ptr, align 8
  %6 = alloca ptr, align 8
  %7 = alloca i32, align 4
  store ptr %0, ptr %4, align 8
  store ptr %1, ptr %5, align 8
  store ptr %2, ptr %6, align 8
  %8 = load ptr, ptr %4, align 8
  %9 = load ptr, ptr %5, align 8
  call void @_ZN7QWidget9setParentEPS_(ptr noundef align 8 dereferenceable_or_null(40) %9, ptr noundef %8)
  call void @llvm.lifetime.start.p0(i64 4, ptr %7) #12
  %10 = load ptr, ptr %5, align 8
  %11 = call noundef i32 @_ZN10QTabWidget6addTabEP7QWidgetRK7QString(ptr noundef align 8 dereferenceable_or_null(40) %8, ptr noundef %10, ptr noundef align 8 dereferenceable(24) %2)
  store i32 %11, ptr %7, align 4
  %12 = load i32, ptr %7, align 4
  %13 = icmp sgt i32 %12, -1
  br i1 %13, label %14, label %16

14:                                               ; preds = %3
  %15 = load i32, ptr %7, align 4
  call void @_ZN10QTabWidget15setCurrentIndexEi(ptr noundef align 8 dereferenceable_or_null(40) %8, i32 noundef %15)
  br label %16

16:                                               ; preds = %14, %3
  call void @llvm.lifetime.end.p0(i64 4, ptr %7) #12
  ret void
}