; Function Attrs: mustprogress null_pointer_is_valid sspstrong uwtable
define void @_ZN19DetachableTabWidget9attachTabEP7QWidget7QString(ptr noundef align 8 dereferenceable_or_null(64) %0, ptr noundef %1, ptr noundef %2) unnamed_addr #0 align 2 {
  tail call void @_ZN7QWidget9setParentEPS_(ptr noundef align 8 dereferenceable_or_null(40) %1, ptr noundef %0)
  %4 = tail call noundef i32 @_ZN10QTabWidget6addTabEP7QWidgetRK7QString(ptr noundef align 8 dereferenceable_or_null(40) %0, ptr noundef %1, ptr noundef align 8 dereferenceable(24) %2)
  %5 = icmp sgt i32 %4, -1
  br i1 %5, label %6, label %7

6:                                                ; preds = %3
  tail call void @_ZN10QTabWidget15setCurrentIndexEi(ptr noundef align 8 dereferenceable_or_null(40) %0, i32 noundef %4)
  br label %7

7:                                                ; preds = %6, %3
  ret void
}